; Function Attrs: mustprogress uwtable
define internal fastcc noundef zeroext i1 @_ZN32pxrInternal_v0_24__pxrReserved__L15_DemangleNewRawEPNSt7__cxx1112basic_stringIcSt11char_traitsIcESaIcEEE(ptr noundef %0) unnamed_addr #0 personality ptr @__gxx_personality_v0 {
  %2 = alloca %"class.std::__cxx11::basic_string", align 8
  %3 = alloca %"class.std::allocator", align 1
  %4 = alloca i32, align 4
  %5 = alloca %"class.std::__cxx11::basic_string", align 8
  %6 = alloca %"class.std::allocator", align 1
  call void @_ZNSaIcEC1Ev(ptr noundef nonnull align 1 dereferenceable(1) %3) #14
  %7 = invoke noundef ptr @_ZNSt7__cxx1112basic_stringIcSt11char_traitsIcESaIcEE13_M_local_dataEv(ptr noundef nonnull align 8 dereferenceable(32) %2)
          to label %.noexc unwind label %26

.noexc:                                           ; preds = %1
  invoke void @_ZNSt7__cxx1112basic_stringIcSt11char_traitsIcESaIcEE12_Alloc_hiderC1EPcRKS3_(ptr noundef nonnull align 8 dereferenceable(32) %2, ptr noundef %7, ptr noundef nonnull align 1 dereferenceable(1) %3)
          to label %.noexc20 unwind label %26

.noexc20:                                         ; preds = %.noexc
  invoke void @_ZNSt7__cxx1112basic_stringIcSt11char_traitsIcESaIcEE12_M_constructIPKcEEvT_S8_St20forward_iterator_tag(ptr noundef nonnull align 8 dereferenceable(32) %2, ptr noundef nonnull @.str, ptr noundef nonnull getelementptr inbounds nuw (i8, ptr @.str, i64 1))
          to label %_ZNSt7__cxx1112basic_stringIcSt11char_traitsIcESaIcEEC2IS3_EEPKcRKS3_.exit unwind label %8

8:                                                ; preds = %.noexc20
  %9 = landingpad { ptr, i32 }
          cleanup
  call void @_ZNSaIcED2Ev(ptr noundef nonnull align 8 dereferenceable(32) %2) #14
  br label %.body

_ZNSt7__cxx1112basic_stringIcSt11char_traitsIcESaIcEEC2IS3_EEPKcRKS3_.exit: ; preds = %.noexc20
  call void @_ZNSaIcED1Ev(ptr noundef nonnull align 1 dereferenceable(1) %3) #14
  %10 = invoke noundef nonnull align 8 dereferenceable(32) ptr @_ZNSt7__cxx1112basic_stringIcSt11char_traitsIcESaIcEEpLERKS4_(ptr noundef nonnull align 8 dereferenceable(32) %2, ptr noundef nonnull align 8 dereferenceable(32) %0)
          to label %11 unwind label %28

11:                                               ; preds = %_ZNSt7__cxx1112basic_stringIcSt11char_traitsIcESaIcEEC2IS3_EEPKcRKS3_.exit
  %12 = call noundef ptr @_ZNKSt7__cxx1112basic_stringIcSt11char_traitsIcESaIcEE5c_strEv(ptr noundef nonnull align 8 dereferenceable(32) %2) #14
  %13 = invoke ptr @__cxa_demangle(ptr noundef %12, ptr noundef null, ptr noundef null, ptr noundef nonnull %4)
          to label %14 unwind label %28

14:                                               ; preds = %11
  %.not = icmp eq ptr %13, null
  br i1 %.not, label %33, label %15

15:                                               ; preds = %14
  %16 = call i64 @strlen(ptr noundef nonnull dereferenceable(1) %13) #16
  %17 = icmp ugt i64 %16, 1
  br i1 %17, label %18, label %32

18:                                               ; preds = %15
  %19 = add i64 %16, -1
  %20 = getelementptr inbounds i8, ptr %13, i64 %19
  %21 = load i8, ptr %20, align 1
  %22 = icmp eq i8 %21, 42
  br i1 %22, label %23, label %32

23:                                               ; preds = %18
  call void @_ZNSaIcEC1Ev(ptr noundef nonnull align 1 dereferenceable(1) %6) #14
  invoke void @_ZNSt7__cxx1112basic_stringIcSt11char_traitsIcESaIcEEC1EPKcmRKS3_(ptr noundef nonnull align 8 dereferenceable(32) %5, ptr noundef nonnull %13, i64 noundef %19, ptr noundef nonnull align 1 dereferenceable(1) %6)
          to label %24 unwind label %30

24:                                               ; preds = %23
  %25 = call noundef nonnull align 8 dereferenceable(32) ptr @_ZNSt7__cxx1112basic_stringIcSt11char_traitsIcESaIcEEaSEOS4_(ptr noundef nonnull align 8 dereferenceable(32) %0, ptr noundef nonnull align 8 dereferenceable(32) %5) #14
  call void @_ZNSt7__cxx1112basic_stringIcSt11char_traitsIcESaIcEED1Ev(ptr noundef nonnull align 8 dereferenceable(32) %5) #14
  call void @_ZNSaIcED1Ev(ptr noundef nonnull align 1 dereferenceable(1) %6) #14
  br label %32

26:                                               ; preds = %.noexc, %1
  %27 = landingpad { ptr, i32 }
          cleanup
  br label %.body

.body:                                            ; preds = %8, %26
  %eh.lpad-body = phi { ptr, i32 } [ %27, %26 ], [ %9, %8 ]
  call void @_ZNSaIcED1Ev(ptr noundef nonnull align 1 dereferenceable(1) %3) #14
  br label %35

28:                                               ; preds = %11, %_ZNSt7__cxx1112basic_stringIcSt11char_traitsIcESaIcEEC2IS3_EEPKcRKS3_.exit
  %29 = landingpad { ptr, i32 }
          cleanup
  br label %34

30:                                               ; preds = %23
  %31 = landingpad { ptr, i32 }
          cleanup
  call void @_ZNSaIcED1Ev(ptr noundef nonnull align 1 dereferenceable(1) %6) #14
  br label %34

32:                                               ; preds = %24, %18, %15
  %.115 = phi i1 [ true, %24 ], [ false, %18 ], [ false, %15 ]
  call void @free(ptr noundef nonnull %13) #14
  br label %33

33:                                               ; preds = %32, %14
  %.014 = phi i1 [ %.115, %32 ], [ false, %14 ]
  call void @_ZNSt7__cxx1112basic_stringIcSt11char_traitsIcESaIcEED1Ev(ptr noundef nonnull align 8 dereferenceable(32) %2) #14
  ret i1 %.014

34:                                               ; preds = %30, %28
  %.pn = phi { ptr, i32 } [ %31, %30 ], [ %29, %28 ]
  call void @_ZNSt7__cxx1112basic_stringIcSt11char_traitsIcESaIcEED1Ev(ptr noundef nonnull align 8 dereferenceable(32) %2) #14
  br label %35

35:                                               ; preds = %34, %.body
  %.pn.pn = phi { ptr, i32 } [ %.pn, %34 ], [ %eh.lpad-body, %.body ]
  resume { ptr, i32 } %.pn.pn
}